target datalayout = "e-m:e-p270:32:32-p271:32:32-p272:64:64-i64:64-i128:128-f80:128-n8:16:32:64-S128"
target triple = "x86_64-pc-linux-gnu"

@fill_random_bytes_syscall.try_syscall = internal global i32 1, align 4

; Function Attrs: inlinehint nounwind sspstrong memory(argmem: readwrite, inaccessiblemem: readwrite) uwtable
define internal void @rbimpl_atomic_set(ptr noundef nonnull %0, i32 noundef %1) #12 {
  %3 = alloca ptr, align 8
  %4 = alloca i32, align 4
  %5 = alloca i32, align 4
  store ptr %0, ptr %3, align 8, !tbaa !59
  store i32 %1, ptr %4, align 4, !tbaa !19
  %6 = load ptr, ptr %3, align 8, !tbaa !59
  %7 = load i32, ptr %4, align 4, !tbaa !19
  store i32 %7, ptr %5, align 4, !tbaa !19
  %8 = load i32, ptr %5, align 4
  store atomic volatile i32 %8, ptr %6 seq_cst, align 4
  ret void
}

; Function Attrs: nounwind sspstrong uwtable
define internal i32 @fill_random_bytes_urandom(ptr noundef %0, i64 noundef %1) #0 {
  %3 = alloca i32, align 4
  %4 = alloca ptr, align 8
  %5 = alloca i64, align 8
  %6 = alloca ptr, align 8
  %7 = alloca i64, align 8
  %8 = alloca i32, align 4
  store ptr %0, ptr %4, align 8, !tbaa !20
  store i64 %1, ptr %5, align 8, !tbaa !26
  call void @llvm.lifetime.start.p0(i64 8, ptr %6) #24
  %9 = load ptr, ptr %4, align 8, !tbaa !20
  store ptr %9, ptr %6, align 8, !tbaa !29
  br label %10

10:                                               ; preds = %35, %2
  %11 = load i64, ptr %5, align 8, !tbaa !26
  %12 = icmp ne i64 %11, 0
  br i1 %12, label %13, label %36

13:                                               ; preds = %10
  call void @llvm.lifetime.start.p0(i64 8, ptr %7) #24
  %14 = load i64, ptr %5, align 8, !tbaa !26
  %15 = icmp ult i64 %14, 256
  br i1 %15, label %16, label %18

16:                                               ; preds = %13
  %17 = load i64, ptr %5, align 8, !tbaa !26
  br label %19

18:                                               ; preds = %13
  br label %19

19:                                               ; preds = %18, %16
  %20 = phi i64 [ %17, %16 ], [ 256, %18 ]
  store i64 %20, ptr %7, align 8, !tbaa !26
  %21 = load ptr, ptr %6, align 8, !tbaa !29
  %22 = load i64, ptr %7, align 8, !tbaa !26
  %23 = call i32 @getentropy(ptr noundef %21, i64 noundef %22)
  %24 = icmp ne i32 %23, 0
  br i1 %24, label %25, label %26

25:                                               ; preds = %19
  store i32 -1, ptr %3, align 4
  store i32 1, ptr %8, align 4
  br label %33

26:                                               ; preds = %19
  %27 = load i64, ptr %7, align 8, !tbaa !26
  %28 = load ptr, ptr %6, align 8, !tbaa !29
  %29 = getelementptr i8, ptr %28, i64 %27
  store ptr %29, ptr %6, align 8, !tbaa !29
  %30 = load i64, ptr %7, align 8, !tbaa !26
  %31 = load i64, ptr %5, align 8, !tbaa !26
  %32 = sub i64 %31, %30
  store i64 %32, ptr %5, align 8, !tbaa !26
  store i32 0, ptr %8, align 4
  br label %33

33:                                               ; preds = %26, %25
  call void @llvm.lifetime.end.p0(i64 8, ptr %7) #24
  %34 = load i32, ptr %8, align 4
  switch i32 %34, label %37 [
    i32 0, label %35
  ]

35:                                               ; preds = %33
  br label %10, !llvm.loop !31

36:                                               ; preds = %10
  store i32 0, ptr %3, align 4
  store i32 1, ptr %8, align 4
  br label %37

37:                                               ; preds = %36, %33
  call void @llvm.lifetime.end.p0(i64 8, ptr %6) #24
  %38 = load i32, ptr %3, align 4
  ret i32 %38
}

; Function Attrs: nounwind sspstrong uwtable
define internal i32 @fill_random_bytes_syscall(ptr noundef %0, i64 noundef %1, i32 noundef %2) #0 {
  %4 = alloca i32, align 4
  %5 = alloca ptr, align 8
  %6 = alloca i64, align 8
  %7 = alloca i32, align 4
  %8 = alloca i64, align 8
  %9 = alloca i32, align 4
  %10 = alloca i64, align 8
  %11 = alloca i32, align 4
  store ptr %0, ptr %5, align 8, !tbaa !20
  store i64 %1, ptr %6, align 8, !tbaa !26
  store i32 %2, ptr %7, align 4, !tbaa !19
  %12 = load i32, ptr @fill_random_bytes_syscall.try_syscall, align 4, !tbaa !19
  %13 = icmp ne i32 %12, 0
  br i1 %13, label %14, label %45

14:                                               ; preds = %3
  call void @llvm.lifetime.start.p0(i64 8, ptr %8) #24
  store i64 0, ptr %8, align 8, !tbaa !26
  call void @llvm.lifetime.start.p0(i64 4, ptr %9) #24
  store i32 0, ptr %9, align 4, !tbaa !19
  %15 = load i32, ptr %7, align 4, !tbaa !19
  %16 = icmp ne i32 %15, 0
  br i1 %16, label %18, label %17

17:                                               ; preds = %14
  store i32 1, ptr %9, align 4, !tbaa !19
  br label %18

18:                                               ; preds = %17, %14
  br label %19

19:                                               ; preds = %39, %18
  %20 = call ptr @rb_errno_ptr()
  store i32 0, ptr %20, align 4, !tbaa !19
  call void @llvm.lifetime.start.p0(i64 8, ptr %10) #24
  %21 = load ptr, ptr %5, align 8, !tbaa !20
  %22 = load i64, ptr %8, align 8, !tbaa !26
  %23 = getelementptr i8, ptr %21, i64 %22
  %24 = load i64, ptr %6, align 8, !tbaa !26
  %25 = load i64, ptr %8, align 8, !tbaa !26
  %26 = sub i64 %24, %25
  %27 = load i32, ptr %9, align 4, !tbaa !19
  %28 = call i64 @getrandom(ptr noundef %23, i64 noundef %26, i32 noundef %27)
  store i64 %28, ptr %10, align 8, !tbaa !26
  %29 = load i64, ptr %10, align 8, !tbaa !26
  %30 = icmp eq i64 %29, -1
  br i1 %30, label %31, label %32

31:                                               ; preds = %19
  call void @rbimpl_atomic_set(ptr noundef @fill_random_bytes_syscall.try_syscall, i32 noundef 0) #25
  store i32 -1, ptr %4, align 4
  store i32 1, ptr %11, align 4
  br label %36

32:                                               ; preds = %19
  %33 = load i64, ptr %10, align 8, !tbaa !26
  %34 = load i64, ptr %8, align 8, !tbaa !26
  %35 = add i64 %34, %33
  store i64 %35, ptr %8, align 8, !tbaa !26
  store i32 0, ptr %11, align 4
  br label %36

36:                                               ; preds = %32, %31
  call void @llvm.lifetime.end.p0(i64 8, ptr %10) #24
  %37 = load i32, ptr %11, align 4
  switch i32 %37, label %44 [
    i32 0, label %38
  ]

38:                                               ; preds = %36
  br label %39

39:                                               ; preds = %38
  %40 = load i64, ptr %8, align 8, !tbaa !26
  %41 = load i64, ptr %6, align 8, !tbaa !26
  %42 = icmp ult i64 %40, %41
  br i1 %42, label %19, label %43, !llvm.loop !27

43:                                               ; preds = %39
  store i32 0, ptr %4, align 4
  store i32 1, ptr %11, align 4
  br label %44

44:                                               ; preds = %43, %36
  call void @llvm.lifetime.end.p0(i64 4, ptr %9) #24
  call void @llvm.lifetime.end.p0(i64 8, ptr %8) #24
  br label %46

45:                                               ; preds = %3
  store i32 -1, ptr %4, align 4
  br label %46

46:                                               ; preds = %45, %44
  %47 = load i32, ptr %4, align 4
  ret i32 %47
}

; Function Attrs: nounwind sspstrong uwtable
define hidden i32 @ruby_fill_random_bytes(ptr noundef %0, i64 noundef %1, i32 noundef %2) #0 {
  %4 = alloca i32, align 4
  %5 = alloca ptr, align 8
  %6 = alloca i64, align 8
  %7 = alloca i32, align 4
  %8 = alloca i32, align 4
  %9 = alloca i32, align 4
  store ptr %0, ptr %5, align 8, !tbaa !20
  store i64 %1, ptr %6, align 8, !tbaa !26
  store i32 %2, ptr %7, align 4, !tbaa !19
  call void @llvm.lifetime.start.p0(i64 4, ptr %8) #24
  %10 = load ptr, ptr %5, align 8, !tbaa !20
  %11 = load i64, ptr %6, align 8, !tbaa !26
  %12 = load i32, ptr %7, align 4, !tbaa !19
  %13 = call i32 @fill_random_bytes_syscall(ptr noundef %10, i64 noundef %11, i32 noundef %12)
  store i32 %13, ptr %8, align 4, !tbaa !19
  %14 = load i32, ptr %8, align 4, !tbaa !19
  %15 = icmp eq i32 %14, 0
  br i1 %15, label %16, label %18

16:                                               ; preds = %3
  %17 = load i32, ptr %8, align 4, !tbaa !19
  store i32 %17, ptr %4, align 4
  store i32 1, ptr %9, align 4
  br label %22

18:                                               ; preds = %3
  %19 = load ptr, ptr %5, align 8, !tbaa !20
  %20 = load i64, ptr %6, align 8, !tbaa !26
  %21 = call i32 @fill_random_bytes_urandom(ptr noundef %19, i64 noundef %20)
  store i32 %21, ptr %4, align 4
  store i32 1, ptr %9, align 4
  br label %22

22:                                               ; preds = %18, %16
  call void @llvm.lifetime.end.p0(i64 4, ptr %8) #24
  %23 = load i32, ptr %4, align 4
  ret i32 %23
}