; Function Attrs: nounwind sspstrong uwtable
define hidden range(i32 -1, 1) i32 @ruby_fill_random_bytes(ptr noundef %0, i64 noundef %1, i32 noundef %2) local_unnamed_addr #0 {
  %4 = load i32, ptr @fill_random_bytes_syscall.try_syscall, align 4, !tbaa !22
  %.not.i = icmp eq i32 %4, 0
  br i1 %.not.i, label %.preheader, label %5

5:                                                ; preds = %3
  %.not16.i = icmp eq i32 %2, 0
  %spec.store.select.i = zext i1 %.not16.i to i32
  br label %6

6:                                                ; preds = %11, %5
  %.013.i = phi i64 [ 0, %5 ], [ %12, %11 ]
  %7 = tail call ptr @rb_errno_ptr() #23
  store i32 0, ptr %7, align 4, !tbaa !22
  %8 = getelementptr i8, ptr %0, i64 %.013.i
  %9 = sub i64 %1, %.013.i
  %10 = tail call i64 @getrandom(ptr noundef %8, i64 noundef %9, i32 noundef %spec.store.select.i) #23
  %.not17.i = icmp eq i64 %10, -1
  br i1 %.not17.i, label %.thread.i, label %11

.thread.i:                                        ; preds = %6
  store atomic volatile i32 0, ptr @fill_random_bytes_syscall.try_syscall seq_cst, align 4
  br label %.preheader

.preheader:                                       ; preds = %3, %.thread.i
  br label %14

11:                                               ; preds = %6
  %12 = add i64 %10, %.013.i
  %13 = icmp ult i64 %12, %1
  br i1 %13, label %6, label %fill_random_bytes_syscall.exit, !llvm.loop !27

14:                                               ; preds = %.preheader, %15
  %.014.i = phi i64 [ %19, %15 ], [ %1, %.preheader ]
  %.012.i = phi ptr [ %18, %15 ], [ %0, %.preheader ]
  %.not.i8 = icmp eq i64 %.014.i, 0
  br i1 %.not.i8, label %fill_random_bytes_syscall.exit, label %15

15:                                               ; preds = %14
  %16 = tail call i64 @llvm.umin.i64(i64 %.014.i, i64 256)
  %17 = tail call i32 @getentropy(ptr noundef %.012.i, i64 noundef %16) #23
  %.not16.i9 = icmp eq i32 %17, 0
  %18 = getelementptr i8, ptr %.012.i, i64 %16
  %19 = sub i64 %.014.i, %16
  br i1 %.not16.i9, label %14, label %fill_random_bytes_syscall.exit, !llvm.loop !28

fill_random_bytes_syscall.exit:                   ; preds = %11, %15, %14
  %.0 = phi i32 [ 0, %14 ], [ -1, %15 ], [ 0, %11 ]
  ret i32 %.0
}